; Function Attrs: nounwind uwtable
define internal void @cf_hc_destroy(ptr noundef %0, ptr noundef %1) #0 {
  %3 = getelementptr inbounds nuw i8, ptr %0, i64 16
  %4 = load ptr, ptr %3, align 8, !tbaa !3
  %.not = icmp eq ptr %1, null
  br i1 %.not, label %thread-pre-split, label %5

5:                                                ; preds = %2
  %6 = getelementptr inbounds nuw i8, ptr %1, i64 2658
  %7 = load i64, ptr %6, align 2
  %8 = and i64 %7, 2147483648
  %.not14 = icmp eq i64 %8, 0
  br i1 %.not14, label %thread-pre-split, label %9

9:                                                ; preds = %5
  %10 = getelementptr inbounds nuw i8, ptr %1, i64 4864
  %11 = load ptr, ptr %10, align 8, !tbaa !12
  %.not15 = icmp eq ptr %11, null
  br i1 %.not15, label %16, label %12

12:                                               ; preds = %9
  %13 = getelementptr inbounds nuw i8, ptr %11, i64 8
  %14 = load i32, ptr %13, align 8, !tbaa !79
  %15 = icmp sgt i32 %14, 0
  br i1 %15, label %16, label %thread-pre-split

16:                                               ; preds = %9, %12
  %17 = load ptr, ptr %0, align 8, !tbaa !81
  %18 = getelementptr inbounds nuw i8, ptr %17, i64 12
  %19 = load i32, ptr %18, align 4, !tbaa !82
  %20 = icmp sgt i32 %19, 0
  br i1 %20, label %21, label %thread-pre-split

21:                                               ; preds = %16
  tail call void (ptr, ptr, ptr, ...) @Curl_trc_cf_infof(ptr noundef nonnull %1, ptr noundef nonnull %0, ptr noundef nonnull @.str.1) #4
  %.val.pr.pre = load ptr, ptr %3, align 8, !tbaa !3
  br label %thread-pre-split

thread-pre-split:                                 ; preds = %21, %16, %12, %5, %2
  %.val = phi ptr [ %4, %2 ], [ %4, %5 ], [ %4, %12 ], [ %4, %16 ], [ %.val.pr.pre, %21 ]
  %.not.i = icmp eq ptr %.val, null
  br i1 %.not.i, label %cf_hc_reset.exit, label %.preheader.i

.preheader.i:                                     ; preds = %thread-pre-split
  %22 = getelementptr inbounds nuw i8, ptr %.val, i64 152
  %23 = load i64, ptr %22, align 8, !tbaa !84
  %.not2.i = icmp eq i64 %23, 0
  br i1 %.not2.i, label %._crit_edge.i, label %.lr.ph.i

.lr.ph.i:                                         ; preds = %.preheader.i
  %24 = getelementptr inbounds nuw i8, ptr %.val, i64 40
  br label %25

25:                                               ; preds = %cf_hc_baller_reset.exit.i, %.lr.ph.i
  %26 = phi i64 [ %23, %.lr.ph.i ], [ %31, %cf_hc_baller_reset.exit.i ]
  %.01.i = phi i64 [ 0, %.lr.ph.i ], [ %34, %cf_hc_baller_reset.exit.i ]
  %27 = getelementptr inbounds nuw [2 x %struct.cf_hc_baller], ptr %24, i64 0, i64 %.01.i
  %28 = getelementptr inbounds nuw i8, ptr %27, i64 8
  %29 = load ptr, ptr %28, align 8, !tbaa !86
  %.not.i.i = icmp eq ptr %29, null
  br i1 %.not.i.i, label %cf_hc_baller_reset.exit.i, label %30

30:                                               ; preds = %25
  tail call void @Curl_conn_cf_close(ptr noundef nonnull %29, ptr noundef %1) #4
  tail call void @Curl_conn_cf_discard_chain(ptr noundef nonnull %28, ptr noundef %1) #4
  store ptr null, ptr %28, align 8, !tbaa !86
  %.pre.i = load i64, ptr %22, align 8, !tbaa !84
  br label %cf_hc_baller_reset.exit.i

cf_hc_baller_reset.exit.i:                        ; preds = %30, %25
  %31 = phi i64 [ %26, %25 ], [ %.pre.i, %30 ]
  %32 = getelementptr inbounds nuw i8, ptr %27, i64 16
  store i32 0, ptr %32, align 8, !tbaa !88
  %33 = getelementptr inbounds nuw i8, ptr %27, i64 40
  store i32 -1, ptr %33, align 8, !tbaa !89
  %34 = add nuw i64 %.01.i, 1
  %35 = icmp ult i64 %34, %31
  br i1 %35, label %25, label %._crit_edge.i, !llvm.loop !90

._crit_edge.i:                                    ; preds = %cf_hc_baller_reset.exit.i, %.preheader.i
  store i32 0, ptr %.val, align 8, !tbaa !92
  %36 = getelementptr inbounds nuw i8, ptr %.val, i64 32
  store i32 0, ptr %36, align 8, !tbaa !93
  %37 = getelementptr inbounds nuw i8, ptr %1, i64 2536
  %38 = load i32, ptr %37, align 8, !tbaa !94
  %39 = getelementptr inbounds nuw i8, ptr %.val, i64 164
  store i32 %38, ptr %39, align 4, !tbaa !95
  %40 = lshr i32 %38, 1
  %41 = getelementptr inbounds nuw i8, ptr %.val, i64 160
  store i32 %40, ptr %41, align 8, !tbaa !96
  br label %cf_hc_reset.exit

cf_hc_reset.exit:                                 ; preds = %thread-pre-split, %._crit_edge.i
  %42 = load ptr, ptr @Curl_cfree, align 8, !tbaa !97
  tail call void %42(ptr noundef %4) #4
  ret void
}